Certificate:
    Data:
        Version: 3 (0x2)
        Serial Number: 14405653278146402128 (0xc7eb2955015b9750)
    Signature Algorithm: sha256WithRSAEncryption
        Issuer: C=TW, ST=Taipei, O=DNI, OU=DQA, CN=test/emailAddress=test@test.com
        Validity
            Not Before: Feb  9 02:59:39 2017 GMT
            Not After : Feb  9 02:59:39 2018 GMT
        Subject: C=TW, ST=Taipei, L=Taipei, O=DNI, OU=DQA, CN=test/emailAddress=test@test.com
        Subject Public Key Info:
            Public Key Algorithm: rsaEncryption
                Public-Key: (2048 bit)
                Modulus:
                    00:ca:88:a5:16:e1:13:da:a4:45:88:1b:ef:48:95:
                    8a:7f:59:f2:ca:83:d4:e8:2a:db:e3:30:d0:ea:7b:
                    8d:8b:61:51:87:02:cd:1c:4d:b5:bf:33:7b:dc:d9:
                    51:86:38:a5:aa:6d:1f:31:d9:c9:f3:d5:e7:24:f3:
                    b8:92:ab:54:15:8f:f8:c4:7b:eb:de:5e:96:20:a0:
                    70:5a:35:48:27:9f:77:75:d4:25:33:e4:c4:28:ab:
                    5c:55:da:ee:77:48:10:05:c0:46:e6:0d:c3:5f:62:
                    96:c6:5c:15:61:d3:f3:7c:23:c8:6f:82:f8:97:0d:
                    6f:2c:3f:6b:64:b1:c9:14:81:17:a1:59:24:15:eb:
                    de:fe:65:26:9a:cb:32:33:71:a2:b5:8a:b2:48:7a:
                    b0:c9:4e:a4:3e:0d:ff:8a:56:17:1f:89:ef:47:c8:
                    4b:d7:10:f4:aa:ce:58:6f:a2:6e:3e:dc:f5:d7:64:
                    b1:a2:33:b6:d6:3a:b4:bd:c9:11:5d:86:83:82:78:
                    43:9c:26:f8:a6:24:4c:1f:03:77:c4:99:15:93:38:
                    85:fd:d0:61:98:68:bf:a8:2e:57:cc:36:b3:6a:de:
                    25:1f:03:9d:3d:81:5d:ad:88:d4:5c:be:d2:d8:66:
                    03:cc:6d:a4:3a:c6:13:82:aa:ba:ee:96:c6:0a:1b:
                    b9:39
                Exponent: 65537 (0x10001)
        X509v3 extensions:
            X509v3 Basic Constraints: 
                CA:FALSE
            Netscape Comment: 
                OpenSSL Generated Certificate
            X509v3 Subject Key Identifier: 
                16:3B:99:24:AE:53:7C:3E:CF:C8:4B:2C:D8:A8:C4:98:74:C8:93:93
            X509v3 Authority Key Identifier: 
                keyid:72:CE:D7:90:7A:15:66:29:AB:9F:EF:E1:70:88:5E:34:80:06:00:DA

    Signature Algorithm: sha256WithRSAEncryption
         0c:c3:24:20:08:7b:49:f8:fe:8b:37:57:db:b5:5e:5d:ed:59:
         fc:ea:a3:d8:e8:25:c6:c9:aa:54:ca:27:81:ad:2a:56:e6:6b:
         fc:3d:11:78:ea:e8:10:ca:0d:ee:19:55:4a:6c:d3:44:93:50:
         64:58:c6:33:44:d8:66:12:3c:f4:91:39:5c:59:88:03:e2:3c:
         33:c8:0e:b6:18:a8:f4:9c:3f:05:53:a4:e8:0b:2c:fc:e3:2a:
         41:1f:8c:05:19:92:ff:58:1b:bd:ee:cd:bf:88:07:0a:90:7a:
         b0:a2:67:92:b6:19:de:ac:bd:45:f4:3a:ba:ce:aa:87:0a:f8:
         1c:bd:23:30:b4:16:af:09:3d:86:ce:53:10:ff:53:6a:0e:91:
         cf:66:56:58:a7:4f:24:88:46:81:98:03:fb:44:9a:9e:c3:36:
         e2:1e:43:50:85:fd:a0:d8:cb:a2:f9:9b:c7:da:88:4c:9e:78:
         3f:63:ce:19:0d:51:ed:54:ca:fc:7c:18:42:5a:47:c7:f1:92:
         35:3b:e2:50:7c:54:3a:6e:88:79:e2:9a:5d:99:56:6f:64:23:
         89:26:8e:bb:25:48:0d:38:e0:c3:9a:78:6d:96:3a:10:77:a0:
         97:55:59:3f:35:fc:6b:c3:59:09:6c:1d:bb:01:46:a1:1e:c6:
         00:64:91:f2
-----BEGIN CERTIFICATE-----
MIID3TCCAsWgAwIBAgIJAMfrKVUBW5dQMA0GCSqGSIb3DQEBCwUAMGcxCzAJBgNV
BAYTAlRXMQ8wDQYDVQQIDAZUYWlwZWkxDDAKBgNVBAoMA0ROSTEMMAoGA1UECwwD
RFFBMQ0wCwYDVQQDDAR0ZXN0MRwwGgYJKoZIhvcNAQkBFg10ZXN0QHRlc3QuY29t
MB4XDTE3MDIwOTAyNTkzOVoXDTE4MDIwOTAyNTkzOVoweDELMAkGA1UEBhMCVFcx
DzANBgNVBAgMBlRhaXBlaTEPMA0GA1UEBwwGVGFpcGVpMQwwCgYDVQQKDANETkkx
DDAKBgNVBAsMA0RRQTENMAsGA1UEAwwEdGVzdDEcMBoGCSqGSIb3DQEJARYNdGVz
dEB0ZXN0LmNvbTCCASIwDQYJKoZIhvcNAQEBBQADggEPADCCAQoCggEBAMqIpRbh
E9qkRYgb70iVin9Z8sqD1Ogq2+Mw0Op7jYthUYcCzRxNtb8ze9zZUYY4paptHzHZ
yfPV5yTzuJKrVBWP+MR7695eliCgcFo1SCefd3XUJTPkxCirXFXa7ndIEAXARuYN
w19ilsZcFWHT83wjyG+C+JcNbyw/a2SxyRSBF6FZJBXr3v5lJprLMjNxorWKskh6
sMlOpD4N/4pWFx+J70fIS9cQ9KrOWG+ibj7c9ddksaIzttY6tL3JEV2Gg4J4Q5wm
+KYkTB8Dd8SZFZM4hf3QYZhov6guV8w2s2reJR8DnT2BXa2I1Fy+0thmA8xtpDrG
E4Kquu6WxgobuTkCAwEAAaN7MHkwCQYDVR0TBAIwADAsBglghkgBhvhCAQ0EHxYd
T3BlblNTTCBHZW5lcmF0ZWQgQ2VydGlmaWNhdGUwHQYDVR0OBBYEFBY7mSSuU3w+
z8hLLNioxJh0yJOTMB8GA1UdIwQYMBaAFHLO15B6FWYpq5/v4XCIXjSABgDaMA0G
CSqGSIb3DQEBCwUAA4IBAQAMwyQgCHtJ+P6LN1fbtV5d7Vn86qPY6CXGyapUyieB
rSpW5mv8PRF46ugQyg3uGVVKbNNEk1BkWMYzRNhmEjz0kTlcWYgD4jwzyA62GKj0
nD8FU6ToCyz84ypBH4wFGZL/WBu97s2/iAcKkHqwomeSthnerL1F9Dq6zqqHCvgc
vSMwtBavCT2GzlMQ/1NqDpHPZlZYp08kiEaBmAP7RJqewzbiHkNQhf2g2Mui+ZvH
2ohMnng/Y84ZDVHtVMr8fBhCWkfH8ZI1O+JQfFQ6boh54ppdmVZvZCOJJo67JUgN
OODDmnhtljoQd6CXVVk/Nfxrw1kJbB27AUahHsYAZJHy
-----END CERTIFICATE-----
