-----BEGIN PRIVATE KEY-----
MIIEvgIBADANBgkqhkiG9w0BAQEFAASCBKgwggSkAgEAAoIBAQDTN1cQckEiMWC7
ln0vs9+8Y9fQAxGY4d+AMsEgV6ZzXgEMS/7CwZ/vRXo9BChl+wEJJAlWUY0HDjtb
YNJDQ24USKo4uddzuyFiRoK5M/CaB5GEkV8tZ0HwzSBHsM19Rgydfm9X1GJLPCfr
ppIr/D3g6B07TfDc4Kax4QpNYCwx6YBT/MI0Zo+hQlhTUJf6NI4CLPFQIWVV2Zf7
oCdRiawQ6wQnUdg3uaaQaxk8ZmiLVSsbQfhJAyniuHGy6VJC+I6+NHFBZIK4abj3
1N5XyNhqNhdV4+Lj9x+3Zi8z3n+uS3X34d+E8K0ZJkz2xQ7IavDkMZplvZaNqyUU
6e45SnufAgMBAAECggEBAJeE7ZpIvFzxGzm2/VtJKEmXPmxkpy0LbDAlONIgzrGY
UBwoMDw6dqdJKiW3Y9u0ssuB5Ijdu9PB6+bjkDLcno1Ci4piFyNYrNw5RPHjRsjY
gRWey65gkrdSD8QeG2uw4r/gwbM6EsFyCBlOxzFypFlBaibvBMkPB8Y3cBKN2WZ7
lAD0fj/sayVAEdpMZiQxxGruFdaDOFys6+b/SjsvSjqv/VkBRtSIMwVFDt0/ykut
81Ix4PzDMMZs1mj0rwWQEDxITsdHoZiDA4bjB/IRZGo6FpVyZfX21h1nnsxQ/NNK
3bYdHLy+Z3OgAydlfpCJp8qO9geIKWJwBnnsfjXw0qECgYEA68rDMdz55XZrpN3w
BW4fs8vMiEFb67Bd3Q7m9sWsQK0zKkHOuR8Fk+1QNIq/uR3/th1THrubdRzwqHeC
QB70XAKbzdkCyQdBM1QcVfDWsH2m6raJ4hQqV/4iA8Dv54/LRwdi26o5amklDyml
gsNyAVpWNYbWpWo9TYl0MpWgB0cCgYEA5VFjIDZCeDcKSF8YGwLfx7/am2laDDs9
oU+cxRw4LBKxTkxeTVD35oXrHdWFO4YTTa1Ig8PxcHAFVXq5ZC0w6kb6quyh19X2
5PaorAH2jZOuIZfSK7fCsfw1+nx2ViTMCkyD7Abp5lCx+h7tnWOvTdkUk4Anovxe
VwnkUCYjROkCgYBJgfGuRtSFC5DtWd8s4jLx61P9Glscs+PfOXkZb3COzTAJOXDH
13r2reH2L1crz8VbMfMqvpPtQ7Nm4bLyaHQHhyypVMEAiMlzxgH7bNSROurhezyr
BVxaCDj0cJ6Z0wMtRok0L/IsUVEjU/lsNaAB+fasQzgBY4hu9q4J4wl7mwKBgD0s
kAAI2YSOUkzqKVkTVDVKRfwNh7sZlqBQx6aBl66SMgCMON/xSKCTexxTWJ5/buja
4Cxeeisfhxy9h3Vk5NaqprYwOCCG8L0129s/DtHH4r0NbkDBXcvzV0cCKuNiH5hj
vxGY6o7JWiE6XPMOo7Zlwapzlp9RKa2YcvK6qc/5AoGBAKLZ4Rawpawxiatka3KE
UjnXq4v3blmGddGO9HUv+T90cJLhPe+IerizOV/RWX4M+ciOtkxV63Wb6BwUfM2V
8NnhM8CZqnQIIS9PVpL1mlX6b9Xk4Ra9PzE13EIgLPeLdf9L5Jl8arh5T6XPUzNR
/RWJ9QpLWA5iIVt2+RspetlX
-----END PRIVATE KEY-----
Certificate:
    Data:
        Version: 3 (0x2)
        Serial Number: 14405653278146402127 (0xc7eb2955015b974f)
    Signature Algorithm: sha256WithRSAEncryption
        Issuer: C=TW, ST=Taipei, O=DNI, OU=DQA, CN=test/emailAddress=test@test.com
        Validity
            Not Before: Feb  9 02:27:05 2017 GMT
            Not After : Feb  9 02:27:05 2018 GMT
        Subject: C=TW, ST=Taipei, L=Taipei, O=DNI, OU=DQA, CN=test/emailAddress=test@test.com
        Subject Public Key Info:
            Public Key Algorithm: rsaEncryption
                Public-Key: (2048 bit)
                Modulus:
                    00:d3:37:57:10:72:41:22:31:60:bb:96:7d:2f:b3:
                    df:bc:63:d7:d0:03:11:98:e1:df:80:32:c1:20:57:
                    a6:73:5e:01:0c:4b:fe:c2:c1:9f:ef:45:7a:3d:04:
                    28:65:fb:01:09:24:09:56:51:8d:07:0e:3b:5b:60:
                    d2:43:43:6e:14:48:aa:38:b9:d7:73:bb:21:62:46:
                    82:b9:33:f0:9a:07:91:84:91:5f:2d:67:41:f0:cd:
                    20:47:b0:cd:7d:46:0c:9d:7e:6f:57:d4:62:4b:3c:
                    27:eb:a6:92:2b:fc:3d:e0:e8:1d:3b:4d:f0:dc:e0:
                    a6:b1:e1:0a:4d:60:2c:31:e9:80:53:fc:c2:34:66:
                    8f:a1:42:58:53:50:97:fa:34:8e:02:2c:f1:50:21:
                    65:55:d9:97:fb:a0:27:51:89:ac:10:eb:04:27:51:
                    d8:37:b9:a6:90:6b:19:3c:66:68:8b:55:2b:1b:41:
                    f8:49:03:29:e2:b8:71:b2:e9:52:42:f8:8e:be:34:
                    71:41:64:82:b8:69:b8:f7:d4:de:57:c8:d8:6a:36:
                    17:55:e3:e2:e3:f7:1f:b7:66:2f:33:de:7f:ae:4b:
                    75:f7:e1:df:84:f0:ad:19:26:4c:f6:c5:0e:c8:6a:
                    f0:e4:31:9a:65:bd:96:8d:ab:25:14:e9:ee:39:4a:
                    7b:9f
                Exponent: 65537 (0x10001)
        X509v3 extensions:
            X509v3 Basic Constraints: 
                CA:FALSE
            Netscape Comment: 
                OpenSSL Generated Certificate
            X509v3 Subject Key Identifier: 
                87:73:3D:90:46:9B:BE:18:A9:4D:D1:3F:1B:80:C6:FA:83:A9:0A:89
            X509v3 Authority Key Identifier: 
                keyid:72:CE:D7:90:7A:15:66:29:AB:9F:EF:E1:70:88:5E:34:80:06:00:DA

    Signature Algorithm: sha256WithRSAEncryption
         64:38:ec:24:62:a0:df:48:e9:58:04:29:d5:72:07:51:26:e2:
         16:e6:ce:92:8d:6b:08:e8:63:06:a6:d5:32:34:a2:c3:09:17:
         bf:b6:5c:dc:21:aa:1a:b7:49:56:ce:55:82:09:9b:7f:43:0d:
         b7:d1:82:4e:4b:c9:e9:93:5f:19:74:f9:02:2a:ce:0a:cd:20:
         63:d4:ce:ff:d8:8e:a1:98:cd:23:46:ae:5b:ad:f3:dd:0b:74:
         91:7e:ba:0e:5e:18:6c:9d:c5:7b:c0:78:fa:53:42:b4:85:d8:
         02:f6:ae:aa:7a:80:03:cb:4a:ae:7f:11:4d:16:13:0b:58:fd:
         70:1e:d1:09:a9:fc:dd:13:dc:ad:76:2d:f0:d9:26:a7:c9:0b:
         e0:01:1a:7e:f0:57:dc:44:a7:e2:be:97:83:c6:c4:bc:d9:fd:
         fd:5d:36:29:38:fd:fc:d6:e7:da:a8:ff:bc:ab:3c:e7:17:3f:
         49:ac:29:b8:0a:aa:59:58:9f:93:a5:5c:af:21:39:4b:81:a1:
         97:58:28:99:1c:af:3a:a5:28:e1:68:ec:60:36:6c:b6:74:a1:
         91:e3:f4:54:0c:9d:84:c4:c1:4a:c7:3c:82:32:01:fd:56:a3:
         02:c2:43:16:05:cb:25:98:36:63:0b:b1:06:1e:0c:8a:5f:6d:
         ee:81:7d:f8
-----BEGIN CERTIFICATE-----
MIID3TCCAsWgAwIBAgIJAMfrKVUBW5dPMA0GCSqGSIb3DQEBCwUAMGcxCzAJBgNV
BAYTAlRXMQ8wDQYDVQQIDAZUYWlwZWkxDDAKBgNVBAoMA0ROSTEMMAoGA1UECwwD
RFFBMQ0wCwYDVQQDDAR0ZXN0MRwwGgYJKoZIhvcNAQkBFg10ZXN0QHRlc3QuY29t
MB4XDTE3MDIwOTAyMjcwNVoXDTE4MDIwOTAyMjcwNVoweDELMAkGA1UEBhMCVFcx
DzANBgNVBAgMBlRhaXBlaTEPMA0GA1UEBwwGVGFpcGVpMQwwCgYDVQQKDANETkkx
DDAKBgNVBAsMA0RRQTENMAsGA1UEAwwEdGVzdDEcMBoGCSqGSIb3DQEJARYNdGVz
dEB0ZXN0LmNvbTCCASIwDQYJKoZIhvcNAQEBBQADggEPADCCAQoCggEBANM3VxBy
QSIxYLuWfS+z37xj19ADEZjh34AywSBXpnNeAQxL/sLBn+9Fej0EKGX7AQkkCVZR
jQcOO1tg0kNDbhRIqji513O7IWJGgrkz8JoHkYSRXy1nQfDNIEewzX1GDJ1+b1fU
Yks8J+umkiv8PeDoHTtN8NzgprHhCk1gLDHpgFP8wjRmj6FCWFNQl/o0jgIs8VAh
ZVXZl/ugJ1GJrBDrBCdR2De5ppBrGTxmaItVKxtB+EkDKeK4cbLpUkL4jr40cUFk
grhpuPfU3lfI2Go2F1Xj4uP3H7dmLzPef65Ldffh34TwrRkmTPbFDshq8OQxmmW9
lo2rJRTp7jlKe58CAwEAAaN7MHkwCQYDVR0TBAIwADAsBglghkgBhvhCAQ0EHxYd
T3BlblNTTCBHZW5lcmF0ZWQgQ2VydGlmaWNhdGUwHQYDVR0OBBYEFIdzPZBGm74Y
qU3RPxuAxvqDqQqJMB8GA1UdIwQYMBaAFHLO15B6FWYpq5/v4XCIXjSABgDaMA0G
CSqGSIb3DQEBCwUAA4IBAQBkOOwkYqDfSOlYBCnVcgdRJuIW5s6SjWsI6GMGptUy
NKLDCRe/tlzcIaoat0lWzlWCCZt/Qw230YJOS8npk18ZdPkCKs4KzSBj1M7/2I6h
mM0jRq5brfPdC3SRfroOXhhsncV7wHj6U0K0hdgC9q6qeoADy0qufxFNFhMLWP1w
HtEJqfzdE9ytdi3w2SanyQvgARp+8FfcRKfivpeDxsS82f39XTYpOP381ufaqP+8
qzznFz9JrCm4CqpZWJ+TpVyvITlLgaGXWCiZHK86pSjhaOxgNmy2dKGR4/RUDJ2E
xMFKxzyCMgH9VqMCwkMWBcslmDZjC7EGHgyKX23ugX34
-----END CERTIFICATE-----
